; Function Attrs: mustprogress nounwind ssp uwtable
define internal fastcc void @_ZNSt6vectorISt10shared_ptrIN6open3d8geometry12_GLOBAL__N_113PlaneDetectorEESaIS5_EED2Ev(ptr noundef nonnull readonly align 8 captures(none) dereferenceable(24) %0) unnamed_addr #9 align 2 personality ptr @__gxx_personality_v0 {
  %2 = load ptr, ptr %0, align 8, !tbaa !58
  %3 = getelementptr inbounds nuw i8, ptr %0, i64 8
  %4 = load ptr, ptr %3, align 8, !tbaa !61
  %.not4.i.i = icmp eq ptr %2, %4
  br i1 %.not4.i.i, label %_ZSt8_DestroyIPSt10shared_ptrIN6open3d8geometry12_GLOBAL__N_113PlaneDetectorEES5_EvT_S7_RSaIT0_E.exit, label %.lr.ph.i.i

.lr.ph.i.i:                                       ; preds = %1, %_ZSt8_DestroyISt10shared_ptrIN6open3d8geometry12_GLOBAL__N_113PlaneDetectorEEEvPT_.exit.i.i
  %.05.i.i = phi ptr [ %27, %_ZSt8_DestroyISt10shared_ptrIN6open3d8geometry12_GLOBAL__N_113PlaneDetectorEEEvPT_.exit.i.i ], [ %2, %1 ]
  %5 = getelementptr i8, ptr %.05.i.i, i64 8
  %.0.val.i.i = load ptr, ptr %5, align 8, !tbaa !53
  %.not.i.i.i.i.i = icmp eq ptr %.0.val.i.i, null
  br i1 %.not.i.i.i.i.i, label %_ZSt8_DestroyISt10shared_ptrIN6open3d8geometry12_GLOBAL__N_113PlaneDetectorEEEvPT_.exit.i.i, label %6

6:                                                ; preds = %.lr.ph.i.i
  %7 = getelementptr inbounds nuw i8, ptr %.0.val.i.i, i64 8
  %8 = load atomic i64, ptr %7 acquire, align 8
  %9 = icmp eq i64 %8, 4294967297
  %10 = trunc i64 %8 to i32
  br i1 %9, label %11, label %19

11:                                               ; preds = %6
  store i32 0, ptr %7, align 8, !tbaa !24
  %12 = getelementptr inbounds nuw i8, ptr %.0.val.i.i, i64 12
  store i32 0, ptr %12, align 4, !tbaa !27
  %13 = load ptr, ptr %.0.val.i.i, align 8, !tbaa !11
  %14 = getelementptr inbounds nuw i8, ptr %13, i64 16
  %15 = load ptr, ptr %14, align 8
  tail call void %15(ptr noundef nonnull align 8 dereferenceable(16) %.0.val.i.i) #5
  %16 = load ptr, ptr %.0.val.i.i, align 8, !tbaa !11
  %17 = getelementptr inbounds nuw i8, ptr %16, i64 24
  %18 = load ptr, ptr %17, align 8
  tail call void %18(ptr noundef nonnull align 8 dereferenceable(16) %.0.val.i.i) #5
  br label %_ZSt8_DestroyISt10shared_ptrIN6open3d8geometry12_GLOBAL__N_113PlaneDetectorEEEvPT_.exit.i.i

19:                                               ; preds = %6
  %20 = load i8, ptr @__libc_single_threaded, align 1, !tbaa !13
  %.not.i.i.i.i.i.i = icmp eq i8 %20, 0
  br i1 %.not.i.i.i.i.i.i, label %23, label %21

21:                                               ; preds = %19
  %22 = add nsw i32 %10, -1
  store i32 %22, ptr %7, align 4, !tbaa !64
  br label %_ZN9__gnu_cxx27__exchange_and_add_dispatchEPii.exit.i.i.i.i.i.i

23:                                               ; preds = %19
  %24 = atomicrmw volatile add ptr %7, i32 -1 acq_rel, align 4
  br label %_ZN9__gnu_cxx27__exchange_and_add_dispatchEPii.exit.i.i.i.i.i.i

_ZN9__gnu_cxx27__exchange_and_add_dispatchEPii.exit.i.i.i.i.i.i: ; preds = %23, %21
  %.0.i.i.i.i.i.i.i = phi i32 [ %10, %21 ], [ %24, %23 ]
  %25 = icmp eq i32 %.0.i.i.i.i.i.i.i, 1
  br i1 %25, label %26, label %_ZSt8_DestroyISt10shared_ptrIN6open3d8geometry12_GLOBAL__N_113PlaneDetectorEEEvPT_.exit.i.i, !prof !87

26:                                               ; preds = %_ZN9__gnu_cxx27__exchange_and_add_dispatchEPii.exit.i.i.i.i.i.i
  tail call void @_ZNSt16_Sp_counted_baseILN9__gnu_cxx12_Lock_policyE2EE24_M_release_last_use_coldEv(ptr noundef nonnull align 8 dereferenceable(16) %.0.val.i.i) #5
  br label %_ZSt8_DestroyISt10shared_ptrIN6open3d8geometry12_GLOBAL__N_113PlaneDetectorEEEvPT_.exit.i.i

_ZSt8_DestroyISt10shared_ptrIN6open3d8geometry12_GLOBAL__N_113PlaneDetectorEEEvPT_.exit.i.i: ; preds = %26, %_ZN9__gnu_cxx27__exchange_and_add_dispatchEPii.exit.i.i.i.i.i.i, %11, %.lr.ph.i.i
  %27 = getelementptr inbounds nuw i8, ptr %.05.i.i, i64 16
  %.not.i.i = icmp eq ptr %27, %4
  br i1 %.not.i.i, label %_ZSt8_DestroyIPSt10shared_ptrIN6open3d8geometry12_GLOBAL__N_113PlaneDetectorEES5_EvT_S7_RSaIT0_E.exitthread-pre-split, label %.lr.ph.i.i, !llvm.loop !145

_ZSt8_DestroyIPSt10shared_ptrIN6open3d8geometry12_GLOBAL__N_113PlaneDetectorEES5_EvT_S7_RSaIT0_E.exitthread-pre-split: ; preds = %_ZSt8_DestroyISt10shared_ptrIN6open3d8geometry12_GLOBAL__N_113PlaneDetectorEEEvPT_.exit.i.i
  %.val.pr = load ptr, ptr %0, align 8, !tbaa !58
  br label %_ZSt8_DestroyIPSt10shared_ptrIN6open3d8geometry12_GLOBAL__N_113PlaneDetectorEES5_EvT_S7_RSaIT0_E.exit

_ZSt8_DestroyIPSt10shared_ptrIN6open3d8geometry12_GLOBAL__N_113PlaneDetectorEES5_EvT_S7_RSaIT0_E.exit: ; preds = %_ZSt8_DestroyIPSt10shared_ptrIN6open3d8geometry12_GLOBAL__N_113PlaneDetectorEES5_EvT_S7_RSaIT0_E.exitthread-pre-split, %1
  %.val = phi ptr [ %.val.pr, %_ZSt8_DestroyIPSt10shared_ptrIN6open3d8geometry12_GLOBAL__N_113PlaneDetectorEES5_EvT_S7_RSaIT0_E.exitthread-pre-split ], [ %2, %1 ]
  %.not.i.i2 = icmp eq ptr %.val, null
  br i1 %.not.i.i2, label %_ZNSt12_Vector_baseISt10shared_ptrIN6open3d8geometry12_GLOBAL__N_113PlaneDetectorEESaIS5_EED2Ev.exit, label %28

28:                                               ; preds = %_ZSt8_DestroyIPSt10shared_ptrIN6open3d8geometry12_GLOBAL__N_113PlaneDetectorEES5_EvT_S7_RSaIT0_E.exit
  %29 = getelementptr inbounds nuw i8, ptr %0, i64 16
  %.val1 = load ptr, ptr %29, align 8, !tbaa !62
  %30 = ptrtoint ptr %.val1 to i64
  %31 = ptrtoint ptr %.val to i64
  %32 = sub i64 %30, %31
  tail call void @_ZdlPvm(ptr noundef nonnull %.val, i64 noundef %32) #36
  br label %_ZNSt12_Vector_baseISt10shared_ptrIN6open3d8geometry12_GLOBAL__N_113PlaneDetectorEESaIS5_EED2Ev.exit

_ZNSt12_Vector_baseISt10shared_ptrIN6open3d8geometry12_GLOBAL__N_113PlaneDetectorEESaIS5_EED2Ev.exit: ; preds = %_ZSt8_DestroyIPSt10shared_ptrIN6open3d8geometry12_GLOBAL__N_113PlaneDetectorEES5_EvT_S7_RSaIT0_E.exit, %28
  ret void
}